; Function Attrs: mustprogress uwtable
define hidden noundef ptr @_Z27mk_cofactor_term_ite_tacticR11ast_managerRK10params_ref(ptr noundef nonnull align 8 dereferenceable(976) %m, ptr noundef nonnull align 8 dereferenceable(8) %p) local_unnamed_addr #3 personality ptr @__gxx_personality_v0 {
entry:
  %call = tail call noalias noundef ptr @_ZN6memory8allocateEm(i64 noundef 48)
  %m_ref_count.i.i = getelementptr inbounds i8, ptr %call, i64 8
  store i32 0, ptr %m_ref_count.i.i, align 8
  store ptr getelementptr inbounds ({ [25 x ptr] }, ptr @_ZTV24cofactor_term_ite_tactic, i64 0, i32 0, i64 2), ptr %call, align 8
  %m_params.i = getelementptr inbounds i8, ptr %call, i64 16
  tail call void @_ZN10params_refC1ERKS_(ptr noundef nonnull align 8 dereferenceable(8) %m_params.i, ptr noundef nonnull align 8 dereferenceable(8) %p)
  %m_elim_ite.i = getelementptr inbounds i8, ptr %call, i64 24
  invoke void @_ZN22cofactor_elim_term_iteC1ER11ast_managerRK10params_ref(ptr noundef nonnull align 8 dereferenceable(24) %m_elim_ite.i, ptr noundef nonnull align 8 dereferenceable(976) %m, ptr noundef nonnull align 8 dereferenceable(8) %p)
          to label %_ZN24cofactor_term_ite_tacticC2ER11ast_managerRK10params_ref.exit unwind label %lpad2.i

lpad2.i:                                          ; preds = %entry
  %0 = landingpad { ptr, i32 }
          cleanup
  tail call void @_ZN10params_refD1Ev(ptr noundef nonnull align 8 dereferenceable(8) %m_params.i) #12
  resume { ptr, i32 } %0

_ZN24cofactor_term_ite_tacticC2ER11ast_managerRK10params_ref.exit: ; preds = %entry
  %call1 = tail call noundef ptr @_Z5cleanP6tactic(ptr noundef nonnull %call)
  ret ptr %call1
}